target datalayout = "e-m:e-p270:32:32-p271:32:32-p272:64:64-i64:64-i128:128-f80:128-n8:16:32:64-S128"
target triple = "x86_64-pc-linux-gnu"

%struct.pmix_mca_base_framework_t = type { ptr, ptr, ptr, ptr, ptr, ptr, i32, i32, ptr, ptr, i32, i32, %struct.pmix_list_t, %struct.pmix_list_t }
%struct.pmix_list_t = type { %struct.pmix_object_t, %struct.pmix_list_item_t, i64 }
%struct.pmix_object_t = type { %union.pthread_mutex_t, ptr, i32, %struct.pmix_tma }
%union.pthread_mutex_t = type { %struct.__pthread_mutex_s }
%struct.__pthread_mutex_s = type { i32, i32, i32, i32, i32, i16, i16, %struct.__pthread_internal_list }
%struct.__pthread_internal_list = type { ptr, ptr }
%struct.pmix_tma = type { ptr, ptr, ptr, ptr, ptr, ptr, ptr, ptr }
%struct.pmix_list_item_t = type { %struct.pmix_object_t, ptr, ptr, i32 }
%struct.pmix_output_desc_t = type { i8, i8, i32, i8, i32, ptr, ptr, i32, ptr, i32, i8, i8, i8, i8, ptr, i32, i32 }
%struct.pmix_pnet_globals_t = type { %struct.pmix_list_t, %struct.pmix_list_t, %struct.pmix_list_t, i8 }
%struct.pmix_proc = type { [256 x i8], i32 }
%struct.pmix_envar_t = type { ptr, ptr, i8 }
%struct.pmix_iof_flags_t = type { i8, i8, i8, i8, i8, i8, i8, ptr, ptr, i8, i8, i8, i8, i8, i8 }
%struct.pmix_namespace_t = type { %struct.pmix_list_item_t, ptr, %struct.anon, i32, i64, i64, i8, i8, ptr, i64, i64, %struct.pmix_list_t, %struct.pmix_personality_t, %struct.pmix_epilog_t, %struct.pmix_list_t, %struct.pmix_iof_flags_t, %struct.pmix_list_t }
%struct.anon = type { i8, i8, i8 }
%struct.pmix_personality_t = type { i8, ptr, ptr, ptr }
%struct.pmix_epilog_t = type { i32, i32, %struct.pmix_list_t, %struct.pmix_list_t, %struct.pmix_list_t }
%struct.pmix_nspace_env_cache_t = type { %struct.pmix_list_item_t, ptr, %struct.pmix_list_t }
%struct.pmix_envar_list_item_t = type { %struct.pmix_list_item_t, %struct.pmix_envar_t }

@pmix_pnet_base_framework = external global %struct.pmix_mca_base_framework_t, align 8
@pmix_output_info = external global [0 x %struct.pmix_output_desc_t], align 8
@pmix_pnet_globals = external global %struct.pmix_pnet_globals_t, align 8
@.str.2 = private unnamed_addr constant [24 x i8] c"pnet: setup_fork called\00", align 1

; Function Attrs: nounwind uwtable
define i32 @pmix_pnet_base_setup_fork(ptr noundef %0, ptr noundef %1) #0 {
  %3 = alloca i32, align 4
  %4 = alloca ptr, align 8
  %5 = alloca ptr, align 8
  %6 = alloca ptr, align 8
  %7 = alloca ptr, align 8
  %8 = alloca ptr, align 8
  %9 = alloca i32, align 4
  store ptr %0, ptr %4, align 8, !tbaa !102
  store ptr %1, ptr %5, align 8, !tbaa !104
  call void @llvm.lifetime.start.p0(i64 8, ptr %6) #11
  call void @llvm.lifetime.start.p0(i64 8, ptr %7) #11
  call void @llvm.lifetime.start.p0(i64 8, ptr %8) #11
  %10 = load i32, ptr getelementptr inbounds nuw (%struct.pmix_mca_base_framework_t, ptr @pmix_pnet_base_framework, i32 0, i32 11), align 4, !tbaa !14
  %11 = icmp sge i32 %10, 0
  br i1 %11, label %12, label %24

12:                                               ; preds = %2
  %13 = load i32, ptr getelementptr inbounds nuw (%struct.pmix_mca_base_framework_t, ptr @pmix_pnet_base_framework, i32 0, i32 11), align 4, !tbaa !14
  %14 = icmp slt i32 %13, 64
  br i1 %14, label %15, label %24

15:                                               ; preds = %12
  %16 = load i32, ptr getelementptr inbounds nuw (%struct.pmix_mca_base_framework_t, ptr @pmix_pnet_base_framework, i32 0, i32 11), align 4, !tbaa !14
  %17 = sext i32 %16 to i64
  %18 = getelementptr inbounds [0 x %struct.pmix_output_desc_t], ptr @pmix_output_info, i64 0, i64 %17
  %19 = getelementptr inbounds nuw %struct.pmix_output_desc_t, ptr %18, i32 0, i32 2
  %20 = load i32, ptr %19, align 4, !tbaa !24
  %21 = icmp sge i32 %20, 2
  br i1 %21, label %22, label %24

22:                                               ; preds = %15
  %23 = load i32, ptr getelementptr inbounds nuw (%struct.pmix_mca_base_framework_t, ptr @pmix_pnet_base_framework, i32 0, i32 11), align 4, !tbaa !14
  call void (i32, ptr, ...) @pmix_output(i32 noundef %23, ptr noundef @.str.2)
  br label %24

24:                                               ; preds = %22, %15, %12, %2
  %25 = load ptr, ptr %4, align 8, !tbaa !102
  %26 = icmp eq ptr null, %25
  br i1 %26, label %30, label %27

27:                                               ; preds = %24
  %28 = load ptr, ptr %5, align 8, !tbaa !104
  %29 = icmp eq ptr null, %28
  br i1 %29, label %30, label %31

30:                                               ; preds = %27, %24
  store i32 -27, ptr %3, align 4
  store i32 1, ptr %9, align 4
  br label %85

31:                                               ; preds = %27
  store ptr null, ptr %6, align 8, !tbaa !27
  %32 = load ptr, ptr getelementptr inbounds nuw (%struct.pmix_list_item_t, ptr getelementptr inbounds nuw (%struct.pmix_list_t, ptr getelementptr inbounds nuw (%struct.pmix_pnet_globals_t, ptr @pmix_pnet_globals, i32 0, i32 2), i32 0, i32 1), i32 0, i32 1), align 8, !tbaa !95
  store ptr %32, ptr %7, align 8, !tbaa !27
  br label %33

33:                                               ; preds = %49, %31
  %34 = load ptr, ptr %7, align 8, !tbaa !27
  %35 = icmp ne ptr %34, getelementptr inbounds nuw (%struct.pmix_list_t, ptr getelementptr inbounds nuw (%struct.pmix_pnet_globals_t, ptr @pmix_pnet_globals, i32 0, i32 2), i32 0, i32 1)
  br i1 %35, label %36, label %53

36:                                               ; preds = %33
  %37 = load ptr, ptr %7, align 8, !tbaa !27
  %38 = getelementptr inbounds nuw %struct.pmix_nspace_env_cache_t, ptr %37, i32 0, i32 1
  %39 = load ptr, ptr %38, align 8, !tbaa !96
  %40 = getelementptr inbounds nuw %struct.pmix_namespace_t, ptr %39, i32 0, i32 1
  %41 = load ptr, ptr %40, align 8, !tbaa !45
  %42 = load ptr, ptr %4, align 8, !tbaa !102
  %43 = getelementptr inbounds nuw %struct.pmix_proc, ptr %42, i32 0, i32 0
  %44 = getelementptr inbounds [256 x i8], ptr %43, i64 0, i64 0
  %45 = call zeroext i1 @PMIx_Check_nspace(ptr noundef %41, ptr noundef %44)
  br i1 %45, label %46, label %48

46:                                               ; preds = %36
  %47 = load ptr, ptr %7, align 8, !tbaa !27
  store ptr %47, ptr %6, align 8, !tbaa !27
  br label %53

48:                                               ; preds = %36
  br label %49

49:                                               ; preds = %48
  %50 = load ptr, ptr %7, align 8, !tbaa !27
  %51 = getelementptr inbounds nuw %struct.pmix_list_item_t, ptr %50, i32 0, i32 1
  %52 = load ptr, ptr %51, align 8, !tbaa !50
  store ptr %52, ptr %7, align 8, !tbaa !27
  br label %33, !llvm.loop !106

53:                                               ; preds = %46, %33
  %54 = load ptr, ptr %6, align 8, !tbaa !27
  %55 = icmp ne ptr null, %54
  br i1 %55, label %56, label %84

56:                                               ; preds = %53
  %57 = load ptr, ptr %6, align 8, !tbaa !27
  %58 = getelementptr inbounds nuw %struct.pmix_nspace_env_cache_t, ptr %57, i32 0, i32 2
  %59 = getelementptr inbounds nuw %struct.pmix_list_t, ptr %58, i32 0, i32 1
  %60 = getelementptr inbounds nuw %struct.pmix_list_item_t, ptr %59, i32 0, i32 1
  %61 = load ptr, ptr %60, align 8, !tbaa !107
  store ptr %61, ptr %8, align 8, !tbaa !27
  br label %62

62:                                               ; preds = %79, %56
  %63 = load ptr, ptr %8, align 8, !tbaa !27
  %64 = load ptr, ptr %6, align 8, !tbaa !27
  %65 = getelementptr inbounds nuw %struct.pmix_nspace_env_cache_t, ptr %64, i32 0, i32 2
  %66 = getelementptr inbounds nuw %struct.pmix_list_t, ptr %65, i32 0, i32 1
  %67 = icmp ne ptr %63, %66
  br i1 %67, label %68, label %83

68:                                               ; preds = %62
  %69 = load ptr, ptr %8, align 8, !tbaa !27
  %70 = getelementptr inbounds nuw %struct.pmix_envar_list_item_t, ptr %69, i32 0, i32 1
  %71 = getelementptr inbounds nuw %struct.pmix_envar_t, ptr %70, i32 0, i32 0
  %72 = load ptr, ptr %71, align 8, !tbaa !108
  %73 = load ptr, ptr %8, align 8, !tbaa !27
  %74 = getelementptr inbounds nuw %struct.pmix_envar_list_item_t, ptr %73, i32 0, i32 1
  %75 = getelementptr inbounds nuw %struct.pmix_envar_t, ptr %74, i32 0, i32 1
  %76 = load ptr, ptr %75, align 8, !tbaa !111
  %77 = load ptr, ptr %5, align 8, !tbaa !104
  %78 = call i32 @PMIx_Setenv(ptr noundef %72, ptr noundef %76, i1 noundef zeroext true, ptr noundef %77)
  br label %79

79:                                               ; preds = %68
  %80 = load ptr, ptr %8, align 8, !tbaa !27
  %81 = getelementptr inbounds nuw %struct.pmix_list_item_t, ptr %80, i32 0, i32 1
  %82 = load ptr, ptr %81, align 8, !tbaa !50
  store ptr %82, ptr %8, align 8, !tbaa !27
  br label %62, !llvm.loop !112

83:                                               ; preds = %62
  br label %84

84:                                               ; preds = %83, %53
  store i32 0, ptr %3, align 4
  store i32 1, ptr %9, align 4
  br label %85

85:                                               ; preds = %84, %30
  call void @llvm.lifetime.end.p0(i64 8, ptr %8) #11
  call void @llvm.lifetime.end.p0(i64 8, ptr %7) #11
  call void @llvm.lifetime.end.p0(i64 8, ptr %6) #11
  %86 = load i32, ptr %3, align 4
  ret i32 %86
}